target datalayout = "e-m:e-p270:32:32-p271:32:32-p272:64:64-i64:64-i128:128-f80:128-n8:16:32:64-S128"
target triple = "x86_64-pc-linux-gnu"

%struct.GENERAL_NAME_st = type { i32, %union.anon }
%union.anon = type { ptr }
%struct.asn1_string_st = type { i32, i32, ptr, i64 }
%struct.x509_st = type { ptr, ptr, ptr, i32, i32, ptr, %struct.crypto_ex_data_st, i64, i64, i64, i64, i64, i64, ptr, ptr, ptr, ptr, ptr, ptr, [20 x i8], ptr }
%struct.crypto_ex_data_st = type { ptr }

; Function Attrs: nounwind uwtable
define hidden i32 @NAME_CONSTRAINTS_check(ptr noundef %0, ptr noundef %1) #0 {
  %3 = alloca i32, align 4
  %4 = alloca ptr, align 8
  %5 = alloca ptr, align 8
  %6 = alloca i32, align 4
  %7 = alloca i32, align 4
  %8 = alloca i64, align 8
  %9 = alloca ptr, align 8
  %10 = alloca %struct.GENERAL_NAME_st, align 8
  %11 = alloca i32, align 4
  %12 = alloca ptr, align 8
  %13 = alloca ptr, align 8
  store ptr %0, ptr %4, align 8, !tbaa !46
  store ptr %1, ptr %5, align 8, !tbaa !17
  call void @llvm.lifetime.start.p0(i64 4, ptr %6) #4
  call void @llvm.lifetime.start.p0(i64 4, ptr %7) #4
  call void @llvm.lifetime.start.p0(i64 8, ptr %8) #4
  call void @llvm.lifetime.start.p0(i64 8, ptr %9) #4
  %14 = load ptr, ptr %4, align 8, !tbaa !46
  %15 = call ptr @X509_get_subject_name(ptr noundef %14)
  store ptr %15, ptr %9, align 8, !tbaa !48
  %16 = load ptr, ptr %9, align 8, !tbaa !48
  %17 = call i32 @X509_NAME_entry_count(ptr noundef %16)
  %18 = icmp sgt i32 %17, 0
  br i1 %18, label %19, label %66

19:                                               ; preds = %2
  call void @llvm.lifetime.start.p0(i64 16, ptr %10) #4
  %20 = getelementptr inbounds nuw %struct.GENERAL_NAME_st, ptr %10, i32 0, i32 0
  store i32 4, ptr %20, align 8, !tbaa !50
  %21 = load ptr, ptr %9, align 8, !tbaa !48
  %22 = getelementptr inbounds nuw %struct.GENERAL_NAME_st, ptr %10, i32 0, i32 1
  store ptr %21, ptr %22, align 8, !tbaa !28
  %23 = load ptr, ptr %5, align 8, !tbaa !17
  %24 = call i32 @nc_match(ptr noundef %10, ptr noundef %23)
  store i32 %24, ptr %6, align 4, !tbaa !41
  %25 = load i32, ptr %6, align 4, !tbaa !41
  %26 = icmp ne i32 %25, 0
  br i1 %26, label %27, label %29

27:                                               ; preds = %19
  %28 = load i32, ptr %6, align 4, !tbaa !41
  store i32 %28, ptr %3, align 4
  store i32 1, ptr %11, align 4
  br label %63

29:                                               ; preds = %19
  %30 = getelementptr inbounds nuw %struct.GENERAL_NAME_st, ptr %10, i32 0, i32 0
  store i32 1, ptr %30, align 8, !tbaa !50
  store i32 -1, ptr %7, align 4, !tbaa !41
  br label %31

31:                                               ; preds = %61, %29
  call void @llvm.lifetime.start.p0(i64 8, ptr %12) #4
  %32 = load ptr, ptr %9, align 8, !tbaa !48
  %33 = load i32, ptr %7, align 4, !tbaa !41
  %34 = call i32 @X509_NAME_get_index_by_NID(ptr noundef %32, i32 noundef 48, i32 noundef %33)
  store i32 %34, ptr %7, align 4, !tbaa !41
  %35 = load i32, ptr %7, align 4, !tbaa !41
  %36 = icmp eq i32 %35, -1
  br i1 %36, label %37, label %38

37:                                               ; preds = %31
  store i32 2, ptr %11, align 4
  br label %59

38:                                               ; preds = %31
  %39 = load ptr, ptr %9, align 8, !tbaa !48
  %40 = load i32, ptr %7, align 4, !tbaa !41
  %41 = call ptr @X509_NAME_get_entry(ptr noundef %39, i32 noundef %40)
  store ptr %41, ptr %12, align 8, !tbaa !52
  %42 = load ptr, ptr %12, align 8, !tbaa !52
  %43 = call ptr @X509_NAME_ENTRY_get_data(ptr noundef %42)
  %44 = getelementptr inbounds nuw %struct.GENERAL_NAME_st, ptr %10, i32 0, i32 1
  store ptr %43, ptr %44, align 8, !tbaa !28
  %45 = getelementptr inbounds nuw %struct.GENERAL_NAME_st, ptr %10, i32 0, i32 1
  %46 = load ptr, ptr %45, align 8, !tbaa !28
  %47 = getelementptr inbounds nuw %struct.asn1_string_st, ptr %46, i32 0, i32 1
  %48 = load i32, ptr %47, align 4, !tbaa !54
  %49 = icmp ne i32 %48, 22
  br i1 %49, label %50, label %51

50:                                               ; preds = %38
  store i32 53, ptr %3, align 4
  store i32 1, ptr %11, align 4
  br label %59

51:                                               ; preds = %38
  %52 = load ptr, ptr %5, align 8, !tbaa !17
  %53 = call i32 @nc_match(ptr noundef %10, ptr noundef %52)
  store i32 %53, ptr %6, align 4, !tbaa !41
  %54 = load i32, ptr %6, align 4, !tbaa !41
  %55 = icmp ne i32 %54, 0
  br i1 %55, label %56, label %58

56:                                               ; preds = %51
  %57 = load i32, ptr %6, align 4, !tbaa !41
  store i32 %57, ptr %3, align 4
  store i32 1, ptr %11, align 4
  br label %59

58:                                               ; preds = %51
  store i32 0, ptr %11, align 4
  br label %59

59:                                               ; preds = %58, %56, %50, %37
  call void @llvm.lifetime.end.p0(i64 8, ptr %12) #4
  %60 = load i32, ptr %11, align 4
  switch i32 %60, label %63 [
    i32 0, label %61
    i32 2, label %62
  ]

61:                                               ; preds = %59
  br label %31

62:                                               ; preds = %59
  store i32 0, ptr %11, align 4
  br label %63

63:                                               ; preds = %62, %59, %27
  call void @llvm.lifetime.end.p0(i64 16, ptr %10) #4
  %64 = load i32, ptr %11, align 4
  switch i32 %64, label %95 [
    i32 0, label %65
  ]

65:                                               ; preds = %63
  br label %66

66:                                               ; preds = %65, %2
  store i64 0, ptr %8, align 8, !tbaa !21
  br label %67

67:                                               ; preds = %91, %66
  %68 = load i64, ptr %8, align 8, !tbaa !21
  %69 = load ptr, ptr %4, align 8, !tbaa !46
  %70 = getelementptr inbounds nuw %struct.x509_st, ptr %69, i32 0, i32 17
  %71 = load ptr, ptr %70, align 8, !tbaa !56
  %72 = call i64 @sk_num(ptr noundef %71)
  %73 = icmp ult i64 %68, %72
  br i1 %73, label %74, label %94

74:                                               ; preds = %67
  call void @llvm.lifetime.start.p0(i64 8, ptr %13) #4
  %75 = load ptr, ptr %4, align 8, !tbaa !46
  %76 = getelementptr inbounds nuw %struct.x509_st, ptr %75, i32 0, i32 17
  %77 = load ptr, ptr %76, align 8, !tbaa !56
  %78 = load i64, ptr %8, align 8, !tbaa !21
  %79 = call ptr @sk_value(ptr noundef %77, i64 noundef %78)
  store ptr %79, ptr %13, align 8, !tbaa !67
  %80 = load ptr, ptr %13, align 8, !tbaa !67
  %81 = load ptr, ptr %5, align 8, !tbaa !17
  %82 = call i32 @nc_match(ptr noundef %80, ptr noundef %81)
  store i32 %82, ptr %6, align 4, !tbaa !41
  %83 = load i32, ptr %6, align 4, !tbaa !41
  %84 = icmp ne i32 %83, 0
  br i1 %84, label %85, label %87

85:                                               ; preds = %74
  %86 = load i32, ptr %6, align 4, !tbaa !41
  store i32 %86, ptr %3, align 4
  store i32 1, ptr %11, align 4
  br label %88

87:                                               ; preds = %74
  store i32 0, ptr %11, align 4
  br label %88

88:                                               ; preds = %87, %85
  call void @llvm.lifetime.end.p0(i64 8, ptr %13) #4
  %89 = load i32, ptr %11, align 4
  switch i32 %89, label %95 [
    i32 0, label %90
  ]

90:                                               ; preds = %88
  br label %91

91:                                               ; preds = %90
  %92 = load i64, ptr %8, align 8, !tbaa !21
  %93 = add i64 %92, 1
  store i64 %93, ptr %8, align 8, !tbaa !21
  br label %67, !llvm.loop !68

94:                                               ; preds = %67
  store i32 0, ptr %3, align 4
  store i32 1, ptr %11, align 4
  br label %95

95:                                               ; preds = %94, %88, %63
  call void @llvm.lifetime.end.p0(i64 8, ptr %9) #4
  call void @llvm.lifetime.end.p0(i64 8, ptr %8) #4
  call void @llvm.lifetime.end.p0(i64 4, ptr %7) #4
  call void @llvm.lifetime.end.p0(i64 4, ptr %6) #4
  %96 = load i32, ptr %3, align 4
  ret i32 %96
}