; Function Attrs: nounwind uwtable
define hidden range(i32 0, 54) i32 @NAME_CONSTRAINTS_check(ptr noundef %0, ptr noundef readonly captures(none) %1) local_unnamed_addr #0 {
  %3 = alloca %struct.GENERAL_NAME_st, align 8
  %4 = tail call ptr @X509_get_subject_name(ptr noundef %0) #6
  %5 = tail call i32 @X509_NAME_entry_count(ptr noundef %4) #6
  %6 = icmp sgt i32 %5, 0
  br i1 %6, label %7, label %22

7:                                                ; preds = %2
  call void @llvm.lifetime.start.p0(i64 16, ptr nonnull %3) #6
  store i32 4, ptr %3, align 8, !tbaa !25
  %8 = getelementptr inbounds nuw i8, ptr %3, i64 8
  store ptr %4, ptr %8, align 8, !tbaa !14
  %9 = call fastcc i32 @nc_match(ptr noundef nonnull %3, ptr noundef %1)
  %.not = icmp eq i32 %9, 0
  br i1 %.not, label %10, label %.thread47

10:                                               ; preds = %7
  store i32 1, ptr %3, align 8, !tbaa !25
  br label %11

11:                                               ; preds = %19, %10
  %.031 = phi i32 [ -1, %10 ], [ %12, %19 ]
  %12 = tail call i32 @X509_NAME_get_index_by_NID(ptr noundef %4, i32 noundef 48, i32 noundef %.031) #6
  %13 = icmp eq i32 %12, -1
  br i1 %13, label %21, label %14

14:                                               ; preds = %11
  %15 = tail call ptr @X509_NAME_get_entry(ptr noundef %4, i32 noundef %12) #6
  %16 = tail call ptr @X509_NAME_ENTRY_get_data(ptr noundef %15) #6
  store ptr %16, ptr %8, align 8, !tbaa !14
  %17 = getelementptr inbounds nuw i8, ptr %16, i64 4
  %18 = load i32, ptr %17, align 4, !tbaa !28
  %.not37 = icmp eq i32 %18, 22
  br i1 %.not37, label %19, label %.thread47

19:                                               ; preds = %14
  %20 = call fastcc i32 @nc_match(ptr noundef nonnull %3, ptr noundef %1)
  %.not38 = icmp eq i32 %20, 0
  br i1 %.not38, label %11, label %.thread47

.thread47:                                        ; preds = %14, %19, %7
  %.1.ph = phi i32 [ %9, %7 ], [ 53, %14 ], [ %20, %19 ]
  call void @llvm.lifetime.end.p0(i64 16, ptr nonnull %3) #6
  br label %.loopexit

21:                                               ; preds = %11
  call void @llvm.lifetime.end.p0(i64 16, ptr nonnull %3) #6
  br label %22

22:                                               ; preds = %21, %2
  %23 = getelementptr inbounds nuw i8, ptr %0, i64 128
  %24 = load ptr, ptr %23, align 8, !tbaa !31
  %25 = tail call i64 @sk_num(ptr noundef %24) #6
  %.not54 = icmp eq i64 %25, 0
  br i1 %.not54, label %.loopexit, label %.lr.ph

26:                                               ; preds = %.lr.ph
  %27 = add nuw i64 %.03251, 1
  %28 = load ptr, ptr %23, align 8, !tbaa !31
  %29 = tail call i64 @sk_num(ptr noundef %28) #6
  %30 = icmp ult i64 %27, %29
  br i1 %30, label %.lr.ph, label %.loopexit, !llvm.loop !43

.lr.ph:                                           ; preds = %22, %26
  %.03251 = phi i64 [ %27, %26 ], [ 0, %22 ]
  %31 = load ptr, ptr %23, align 8, !tbaa !31
  %32 = tail call ptr @sk_value(ptr noundef %31, i64 noundef %.03251) #6
  %33 = tail call fastcc i32 @nc_match(ptr noundef %32, ptr noundef %1)
  %.not39 = icmp eq i32 %33, 0
  br i1 %.not39, label %26, label %.loopexit

.loopexit:                                        ; preds = %.lr.ph, %26, %22, %.thread47
  %.4 = phi i32 [ %.1.ph, %.thread47 ], [ 0, %22 ], [ %33, %.lr.ph ], [ 0, %26 ]
  ret i32 %.4
}